target datalayout = "e-m:e-p270:32:32-p271:32:32-p272:64:64-i64:64-i128:128-f80:128-n8:16:32:64-S128"
target triple = "x86_64-pc-linux-gnu"

%struct._xmlDtd = type { ptr, i32, ptr, ptr, ptr, ptr, ptr, ptr, ptr, ptr, ptr, ptr, ptr, ptr, ptr, ptr }
%struct._zval_struct = type { %union._zend_value, %union.anon, %union.anon.2 }
%union._zend_value = type { i64 }
%union.anon = type { i32 }
%union.anon.2 = type { i32 }

; Function Attrs: nounwind uwtable
define internal ptr @php_dom_obj_from_obj(ptr noundef %0) #0 {
  %2 = alloca ptr, align 8
  store ptr %0, ptr %2, align 8
  %3 = load ptr, ptr %2, align 8
  %4 = getelementptr inbounds i8, ptr %3, i64 -24
  ret ptr %4
}

; Function Attrs: nounwind uwtable
define hidden i32 @dom_documenttype_entities_read(ptr noundef %0, ptr noundef %1) #0 {
  %3 = alloca i32, align 4
  %4 = alloca ptr, align 8
  %5 = alloca ptr, align 8
  %6 = alloca ptr, align 8
  %7 = alloca ptr, align 8
  %8 = alloca ptr, align 8
  store ptr %0, ptr %4, align 8
  store ptr %1, ptr %5, align 8
  %9 = load ptr, ptr %4, align 8
  %10 = call ptr @dom_object_get_node(ptr noundef %9)
  store ptr %10, ptr %6, align 8
  %11 = load ptr, ptr %6, align 8
  %12 = icmp eq ptr %11, null
  br i1 %12, label %13, label %14

13:                                               ; preds = %2
  call void @php_dom_throw_error(i32 noundef 11, i32 noundef 1)
  store i32 -1, ptr %3, align 4
  br label %26

14:                                               ; preds = %2
  %15 = load ptr, ptr %5, align 8
  call void @php_dom_create_iterator(ptr noundef %15, i32 noundef 1)
  %16 = load ptr, ptr %6, align 8
  %17 = getelementptr inbounds %struct._xmlDtd, ptr %16, i32 0, i32 12
  %18 = load ptr, ptr %17, align 8
  store ptr %18, ptr %7, align 8
  %19 = load ptr, ptr %5, align 8
  %20 = getelementptr inbounds %struct._zval_struct, ptr %19, i32 0, i32 0
  %21 = load ptr, ptr %20, align 8
  %22 = call ptr @php_dom_obj_from_obj(ptr noundef %21)
  store ptr %22, ptr %8, align 8
  %23 = load ptr, ptr %4, align 8
  %24 = load ptr, ptr %8, align 8
  %25 = load ptr, ptr %7, align 8
  call void @dom_namednode_iter(ptr noundef %23, i32 noundef 6, ptr noundef %24, ptr noundef %25, ptr noundef null, i64 noundef 0, ptr noundef null, i64 noundef 0)
  store i32 0, ptr %3, align 4
  br label %26

26:                                               ; preds = %14, %13
  %27 = load i32, ptr %3, align 4
  ret i32 %27
}