; Function Attrs: nounwind uwtable
define hidden noundef i32 @dom_documenttype_entities_read(ptr noundef %0, ptr noundef %1) local_unnamed_addr #0 {
  %3 = tail call ptr @dom_object_get_node(ptr noundef %0) #9
  %4 = icmp eq ptr %3, null
  br i1 %4, label %5, label %6

5:                                                ; preds = %2
  tail call void @php_dom_throw_error(i32 noundef 11, i32 noundef 1) #9
  br label %11

6:                                                ; preds = %2
  tail call void @php_dom_create_iterator(ptr noundef %1, i32 noundef 1) #9
  %7 = getelementptr inbounds i8, ptr %3, i64 96
  %8 = load ptr, ptr %7, align 8
  %9 = load ptr, ptr %1, align 8
  %10 = getelementptr inbounds i8, ptr %9, i64 -24
  tail call void @dom_namednode_iter(ptr noundef %0, i32 noundef 6, ptr noundef nonnull %10, ptr noundef %8, ptr noundef null, i64 noundef 0, ptr noundef null, i64 noundef 0) #9
  br label %11

11:                                               ; preds = %6, %5
  %.0 = phi i32 [ -1, %5 ], [ 0, %6 ]
  ret i32 %.0
}